target datalayout = "e-m:e-p270:32:32-p271:32:32-p272:64:64-i64:64-i128:128-f80:128-n8:16:32:64-S128"
target triple = "x86_64-unknown-linux-gnu"

@BrotliReverseBits.kLut = internal constant [16 x i64] [i64 0, i64 8, i64 4, i64 12, i64 2, i64 10, i64 6, i64 14, i64 1, i64 9, i64 5, i64 13, i64 3, i64 11, i64 7, i64 15], align 16

; Function Attrs: nounwind uwtable
define internal zeroext i16 @BrotliReverseBits(i64 noundef %num_bits, i16 noundef zeroext %bits) #0 {
entry:
  %num_bits.addr = alloca i64, align 8
  %bits.addr = alloca i16, align 2
  %retval1 = alloca i64, align 8
  %i = alloca i64, align 8
  store i64 %num_bits, ptr %num_bits.addr, align 8
  store i16 %bits, ptr %bits.addr, align 2
  %0 = load i16, ptr %bits.addr, align 2
  %conv = zext i16 %0 to i32
  %and = and i32 %conv, 15
  %idxprom = sext i32 %and to i64
  %arrayidx = getelementptr inbounds [16 x i64], ptr @BrotliReverseBits.kLut, i64 0, i64 %idxprom
  %1 = load i64, ptr %arrayidx, align 8
  store i64 %1, ptr %retval1, align 8
  store i64 4, ptr %i, align 8
  br label %for.cond

for.cond:                                         ; preds = %for.inc, %entry
  %2 = load i64, ptr %i, align 8
  %3 = load i64, ptr %num_bits.addr, align 8
  %cmp = icmp ult i64 %2, %3
  br i1 %cmp, label %for.body, label %for.end

for.body:                                         ; preds = %for.cond
  %4 = load i64, ptr %retval1, align 8
  %shl = shl i64 %4, 4
  store i64 %shl, ptr %retval1, align 8
  %5 = load i16, ptr %bits.addr, align 2
  %conv3 = zext i16 %5 to i32
  %shr = ashr i32 %conv3, 4
  %conv4 = trunc i32 %shr to i16
  store i16 %conv4, ptr %bits.addr, align 2
  %6 = load i16, ptr %bits.addr, align 2
  %conv5 = zext i16 %6 to i32
  %and6 = and i32 %conv5, 15
  %idxprom7 = sext i32 %and6 to i64
  %arrayidx8 = getelementptr inbounds [16 x i64], ptr @BrotliReverseBits.kLut, i64 0, i64 %idxprom7
  %7 = load i64, ptr %arrayidx8, align 8
  %8 = load i64, ptr %retval1, align 8
  %or = or i64 %8, %7
  store i64 %or, ptr %retval1, align 8
  br label %for.inc

for.inc:                                          ; preds = %for.body
  %9 = load i64, ptr %i, align 8
  %add = add i64 %9, 4
  store i64 %add, ptr %i, align 8
  br label %for.cond, !llvm.loop !31

for.end:                                          ; preds = %for.cond
  %10 = load i64, ptr %num_bits.addr, align 8
  %sub = sub i64 0, %10
  %and9 = and i64 %sub, 3
  %11 = load i64, ptr %retval1, align 8
  %shr10 = lshr i64 %11, %and9
  store i64 %shr10, ptr %retval1, align 8
  %12 = load i64, ptr %retval1, align 8
  %conv11 = trunc i64 %12 to i16
  ret i16 %conv11
}

; Function Attrs: nounwind uwtable
define hidden void @BrotliConvertBitDepthsToSymbols(ptr noundef %depth, i64 noundef %len, ptr noundef %bits) #0 {
entry:
  %depth.addr = alloca ptr, align 8
  %len.addr = alloca i64, align 8
  %bits.addr = alloca ptr, align 8
  %bl_count = alloca [16 x i16], align 16
  %next_code = alloca [16 x i16], align 16
  %i = alloca i64, align 8
  %code = alloca i32, align 4
  store ptr %depth, ptr %depth.addr, align 8
  store i64 %len, ptr %len.addr, align 8
  store ptr %bits, ptr %bits.addr, align 8
  call void @llvm.memset.p0.i64(ptr align 16 %bl_count, i8 0, i64 32, i1 false)
  store i32 0, ptr %code, align 4
  store i64 0, ptr %i, align 8
  br label %for.cond

for.cond:                                         ; preds = %for.inc, %entry
  %0 = load i64, ptr %i, align 8
  %1 = load i64, ptr %len.addr, align 8
  %cmp = icmp ult i64 %0, %1
  br i1 %cmp, label %for.body, label %for.end

for.body:                                         ; preds = %for.cond
  %2 = load ptr, ptr %depth.addr, align 8
  %3 = load i64, ptr %i, align 8
  %arrayidx = getelementptr inbounds i8, ptr %2, i64 %3
  %4 = load i8, ptr %arrayidx, align 1
  %idxprom = zext i8 %4 to i64
  %arrayidx1 = getelementptr inbounds [16 x i16], ptr %bl_count, i64 0, i64 %idxprom
  %5 = load i16, ptr %arrayidx1, align 2
  %inc = add i16 %5, 1
  store i16 %inc, ptr %arrayidx1, align 2
  br label %for.inc

for.inc:                                          ; preds = %for.body
  %6 = load i64, ptr %i, align 8
  %inc2 = add i64 %6, 1
  store i64 %inc2, ptr %i, align 8
  br label %for.cond, !llvm.loop !28

for.end:                                          ; preds = %for.cond
  %arrayidx3 = getelementptr inbounds [16 x i16], ptr %bl_count, i64 0, i64 0
  store i16 0, ptr %arrayidx3, align 16
  %arrayidx4 = getelementptr inbounds [16 x i16], ptr %next_code, i64 0, i64 0
  store i16 0, ptr %arrayidx4, align 16
  store i64 1, ptr %i, align 8
  br label %for.cond5

for.cond5:                                        ; preds = %for.inc11, %for.end
  %7 = load i64, ptr %i, align 8
  %cmp6 = icmp ult i64 %7, 16
  br i1 %cmp6, label %for.body7, label %for.end13

for.body7:                                        ; preds = %for.cond5
  %8 = load i32, ptr %code, align 4
  %9 = load i64, ptr %i, align 8
  %sub = sub i64 %9, 1
  %arrayidx8 = getelementptr inbounds [16 x i16], ptr %bl_count, i64 0, i64 %sub
  %10 = load i16, ptr %arrayidx8, align 2
  %conv = zext i16 %10 to i32
  %add = add nsw i32 %8, %conv
  %shl = shl i32 %add, 1
  store i32 %shl, ptr %code, align 4
  %11 = load i32, ptr %code, align 4
  %conv9 = trunc i32 %11 to i16
  %12 = load i64, ptr %i, align 8
  %arrayidx10 = getelementptr inbounds [16 x i16], ptr %next_code, i64 0, i64 %12
  store i16 %conv9, ptr %arrayidx10, align 2
  br label %for.inc11

for.inc11:                                        ; preds = %for.body7
  %13 = load i64, ptr %i, align 8
  %inc12 = add i64 %13, 1
  store i64 %inc12, ptr %i, align 8
  br label %for.cond5, !llvm.loop !29

for.end13:                                        ; preds = %for.cond5
  store i64 0, ptr %i, align 8
  br label %for.cond14

for.cond14:                                       ; preds = %for.inc26, %for.end13
  %14 = load i64, ptr %i, align 8
  %15 = load i64, ptr %len.addr, align 8
  %cmp15 = icmp ult i64 %14, %15
  br i1 %cmp15, label %for.body17, label %for.end28

for.body17:                                       ; preds = %for.cond14
  %16 = load ptr, ptr %depth.addr, align 8
  %17 = load i64, ptr %i, align 8
  %arrayidx18 = getelementptr inbounds i8, ptr %16, i64 %17
  %18 = load i8, ptr %arrayidx18, align 1
  %tobool = icmp ne i8 %18, 0
  br i1 %tobool, label %if.then, label %if.end

if.then:                                          ; preds = %for.body17
  %19 = load ptr, ptr %depth.addr, align 8
  %20 = load i64, ptr %i, align 8
  %arrayidx19 = getelementptr inbounds i8, ptr %19, i64 %20
  %21 = load i8, ptr %arrayidx19, align 1
  %conv20 = zext i8 %21 to i64
  %22 = load ptr, ptr %depth.addr, align 8
  %23 = load i64, ptr %i, align 8
  %arrayidx21 = getelementptr inbounds i8, ptr %22, i64 %23
  %24 = load i8, ptr %arrayidx21, align 1
  %idxprom22 = zext i8 %24 to i64
  %arrayidx23 = getelementptr inbounds [16 x i16], ptr %next_code, i64 0, i64 %idxprom22
  %25 = load i16, ptr %arrayidx23, align 2
  %inc24 = add i16 %25, 1
  store i16 %inc24, ptr %arrayidx23, align 2
  %call = call zeroext i16 @BrotliReverseBits(i64 noundef %conv20, i16 noundef zeroext %25)
  %26 = load ptr, ptr %bits.addr, align 8
  %27 = load i64, ptr %i, align 8
  %arrayidx25 = getelementptr inbounds i16, ptr %26, i64 %27
  store i16 %call, ptr %arrayidx25, align 2
  br label %if.end

if.end:                                           ; preds = %if.then, %for.body17
  br label %for.inc26

for.inc26:                                        ; preds = %if.end
  %28 = load i64, ptr %i, align 8
  %inc27 = add i64 %28, 1
  store i64 %inc27, ptr %i, align 8
  br label %for.cond14, !llvm.loop !30

for.end28:                                        ; preds = %for.cond14
  ret void
}