; Function Attrs: nofree norecurse nosync nounwind memory(argmem: readwrite) uwtable
define hidden void @BrotliConvertBitDepthsToSymbols(ptr noundef readonly captures(none) %depth, i64 noundef %len, ptr noundef writeonly captures(none) %bits) local_unnamed_addr #0 {
entry:
  %bl_count = alloca [16 x i16], align 16
  %next_code = alloca [16 x i16], align 16
  call void @llvm.memset.p0.i64(ptr noundef nonnull align 16 dereferenceable(32) %bl_count, i8 0, i64 32, i1 false)
  %cmp18.not = icmp eq i64 %len, 0
  br i1 %cmp18.not, label %for.end, label %for.body

for.body:                                         ; preds = %entry, %for.body
  %i.019 = phi i64 [ %inc2, %for.body ], [ 0, %entry ]
  %arrayidx = getelementptr inbounds i8, ptr %depth, i64 %i.019
  %0 = load i8, ptr %arrayidx, align 1
  %idxprom = zext i8 %0 to i64
  %arrayidx1 = getelementptr inbounds nuw [16 x i16], ptr %bl_count, i64 0, i64 %idxprom
  %1 = load i16, ptr %arrayidx1, align 2
  %inc = add i16 %1, 1
  store i16 %inc, ptr %arrayidx1, align 2
  %inc2 = add nuw i64 %i.019, 1
  %exitcond.not = icmp eq i64 %inc2, %len
  br i1 %exitcond.not, label %for.end, label %for.body, !llvm.loop !28

for.end:                                          ; preds = %for.body, %entry
  store i16 0, ptr %bl_count, align 16
  br label %for.body7

for.cond14.preheader:                             ; preds = %for.body7
  br i1 %cmp18.not, label %for.end28, label %for.body17

for.body7:                                        ; preds = %for.end, %for.body7
  %code.021 = phi i16 [ 0, %for.end ], [ %shl, %for.body7 ]
  %i.120 = phi i64 [ 1, %for.end ], [ %inc12, %for.body7 ]
  %sub = add nsw i64 %i.120, -1
  %arrayidx8 = getelementptr inbounds [16 x i16], ptr %bl_count, i64 0, i64 %sub
  %2 = load i16, ptr %arrayidx8, align 2
  %add = add i16 %2, %code.021
  %shl = shl i16 %add, 1
  %arrayidx10 = getelementptr inbounds nuw [16 x i16], ptr %next_code, i64 0, i64 %i.120
  store i16 %shl, ptr %arrayidx10, align 2
  %inc12 = add nuw nsw i64 %i.120, 1
  %exitcond24.not = icmp eq i64 %inc12, 16
  br i1 %exitcond24.not, label %for.cond14.preheader, label %for.body7, !llvm.loop !29

for.body17:                                       ; preds = %for.cond14.preheader, %for.inc26
  %i.223 = phi i64 [ %inc27, %for.inc26 ], [ 0, %for.cond14.preheader ]
  %arrayidx18 = getelementptr inbounds i8, ptr %depth, i64 %i.223
  %3 = load i8, ptr %arrayidx18, align 1
  %tobool.not = icmp eq i8 %3, 0
  br i1 %tobool.not, label %for.inc26, label %if.then

if.then:                                          ; preds = %for.body17
  %conv20 = zext i8 %3 to i64
  %arrayidx23 = getelementptr inbounds nuw [16 x i16], ptr %next_code, i64 0, i64 %conv20
  %4 = load i16, ptr %arrayidx23, align 2
  %inc24 = add i16 %4, 1
  store i16 %inc24, ptr %arrayidx23, align 2
  %5 = and i16 %4, 15
  %idxprom.i = zext nneg i16 %5 to i64
  %arrayidx.i = getelementptr inbounds nuw [16 x i64], ptr @BrotliReverseBits.kLut, i64 0, i64 %idxprom.i
  %6 = load i64, ptr %arrayidx.i, align 8
  %cmp8.i = icmp ugt i8 %3, 4
  br i1 %cmp8.i, label %for.body.i, label %BrotliReverseBits.exit

for.body.i:                                       ; preds = %if.then, %for.body.i
  %i.011.i = phi i64 [ %add.i, %for.body.i ], [ 4, %if.then ]
  %retval1.010.i = phi i64 [ %or.i, %for.body.i ], [ %6, %if.then ]
  %bits.addr.09.i = phi i16 [ %7, %for.body.i ], [ %4, %if.then ]
  %shl.i = shl i64 %retval1.010.i, 4
  %7 = lshr i16 %bits.addr.09.i, 4
  %8 = and i16 %7, 15
  %idxprom7.i = zext nneg i16 %8 to i64
  %arrayidx8.i = getelementptr inbounds nuw [16 x i64], ptr @BrotliReverseBits.kLut, i64 0, i64 %idxprom7.i
  %9 = load i64, ptr %arrayidx8.i, align 8
  %or.i = or i64 %9, %shl.i
  %add.i = add nuw nsw i64 %i.011.i, 4
  %cmp.i = icmp samesign ult i64 %add.i, %conv20
  br i1 %cmp.i, label %for.body.i, label %BrotliReverseBits.exit, !llvm.loop !30

BrotliReverseBits.exit:                           ; preds = %for.body.i, %if.then
  %retval1.0.lcssa.i = phi i64 [ %6, %if.then ], [ %or.i, %for.body.i ]
  %sub.i = sub nsw i64 0, %conv20
  %and9.i = and i64 %sub.i, 3
  %shr10.i = lshr i64 %retval1.0.lcssa.i, %and9.i
  %conv11.i = trunc i64 %shr10.i to i16
  %arrayidx25 = getelementptr inbounds i16, ptr %bits, i64 %i.223
  store i16 %conv11.i, ptr %arrayidx25, align 2
  br label %for.inc26

for.inc26:                                        ; preds = %for.body17, %BrotliReverseBits.exit
  %inc27 = add nuw i64 %i.223, 1
  %exitcond25.not = icmp eq i64 %inc27, %len
  br i1 %exitcond25.not, label %for.end28, label %for.body17, !llvm.loop !31

for.end28:                                        ; preds = %for.inc26, %for.cond14.preheader
  ret void
}